; ModuleID = 'source-C-CXX/36/1253.c'
source_filename = "source-C-CXX/36/1253.c"
target datalayout = "e-m:e-p270:32:32-p271:32:32-p272:64:64-i64:64-f80:128-n8:16:32:64-S128"
target triple = "x86_64-pc-linux-gnu"

@.str = private unnamed_addr constant [3 x i8] c"%d\00", align 1
@.str.1 = private unnamed_addr constant [3 x i8] c"%c\00", align 1
@.str.2 = private unnamed_addr constant [3 x i8] c"%s\00", align 1
@.str.3 = private unnamed_addr constant [4 x i8] c"%c\0A\00", align 1
@str = private unnamed_addr constant [3 x i8] c"no\00", align 1

; Function Attrs: nofree nounwind sspstrong uwtable
define dso_local i32 @main() local_unnamed_addr #0 {
  %1 = alloca [1000 x i8], align 16
  %2 = alloca i8, align 1
  %3 = alloca i32, align 4
  %4 = getelementptr inbounds [1000 x i8], [1000 x i8]* %1, i64 0, i64 0
  call void @llvm.lifetime.start.p0i8(i64 1000, i8* nonnull %4) #5
  call void @llvm.lifetime.start.p0i8(i64 1, i8* nonnull %2) #5
  %5 = bitcast i32* %3 to i8*
  call void @llvm.lifetime.start.p0i8(i64 4, i8* nonnull %5) #5
  %6 = call i32 (i8*, ...) @__isoc99_scanf(i8* getelementptr inbounds ([3 x i8], [3 x i8]* @.str, i64 0, i64 0), i32* nonnull %3)
  %7 = load i32, i32* %3, align 4, !tbaa !5
  %8 = icmp sgt i32 %7, 0
  br i1 %8, label %9, label %51

9:                                                ; preds = %0, %46
  %10 = phi i32 [ %47, %46 ], [ undef, %0 ]
  %11 = phi i32 [ %48, %46 ], [ 0, %0 ]
  %12 = call i32 (i8*, ...) @__isoc99_scanf(i8* getelementptr inbounds ([3 x i8], [3 x i8]* @.str.1, i64 0, i64 0), i8* nonnull %2)
  %13 = call i32 (i8*, ...) @__isoc99_scanf(i8* getelementptr inbounds ([3 x i8], [3 x i8]* @.str.2, i64 0, i64 0), i8* nonnull %4)
  %14 = load i8, i8* %4, align 16
  %15 = icmp eq i8 %14, 0
  br i1 %15, label %42, label %16

16:                                               ; preds = %9, %37
  %17 = phi i64 [ %38, %37 ], [ 0, %9 ]
  %18 = phi i8 [ %40, %37 ], [ %14, %9 ]
  %19 = icmp ne i8 %18, %14
  %20 = icmp eq i64 %17, 0
  %21 = select i1 %19, i1 true, i1 %20
  br i1 %21, label %22, label %37

22:                                               ; preds = %16
  %23 = call i64 @strlen(i8* noundef nonnull %4) #6
  br label %30

24:                                               ; preds = %30
  %25 = getelementptr inbounds [1000 x i8], [1000 x i8]* %1, i64 0, i64 %33
  %26 = load i8, i8* %25, align 1, !tbaa !9
  %27 = icmp ne i8 %18, %26
  %28 = icmp eq i64 %17, %33
  %29 = select i1 %27, i1 true, i1 %28
  br i1 %29, label %30, label %37

30:                                               ; preds = %22, %24
  %31 = phi i64 [ 0, %22 ], [ %33, %24 ]
  %32 = icmp eq i64 %23, %31
  %33 = add nuw i64 %31, 1
  br i1 %32, label %34, label %24

34:                                               ; preds = %30
  %35 = sext i8 %18 to i32
  %36 = call i32 (i8*, ...) @printf(i8* nonnull dereferenceable(1) getelementptr inbounds ([4 x i8], [4 x i8]* @.str.3, i64 0, i64 0), i32 %35)
  br label %46

37:                                               ; preds = %24, %16
  %38 = add nuw i64 %17, 1
  %39 = getelementptr inbounds [1000 x i8], [1000 x i8]* %1, i64 0, i64 %38
  %40 = load i8, i8* %39, align 1, !tbaa !9
  %41 = icmp eq i8 %40, 0
  br i1 %41, label %44, label %16, !llvm.loop !10

42:                                               ; preds = %9
  %43 = icmp eq i32 %10, 0
  br i1 %43, label %44, label %46

44:                                               ; preds = %37, %42
  %45 = call i32 @puts(i8* nonnull dereferenceable(1) getelementptr inbounds ([3 x i8], [3 x i8]* @str, i64 0, i64 0))
  br label %46

46:                                               ; preds = %34, %42, %44
  %47 = phi i32 [ 1, %34 ], [ %10, %42 ], [ 0, %44 ]
  %48 = add nuw nsw i32 %11, 1
  %49 = load i32, i32* %3, align 4, !tbaa !5
  %50 = icmp slt i32 %48, %49
  br i1 %50, label %9, label %51, !llvm.loop !12

51:                                               ; preds = %46, %0
  call void @llvm.lifetime.end.p0i8(i64 4, i8* nonnull %5) #5
  call void @llvm.lifetime.end.p0i8(i64 1, i8* nonnull %2) #5
  call void @llvm.lifetime.end.p0i8(i64 1000, i8* nonnull %4) #5
  ret i32 0
}

; Function Attrs: argmemonly mustprogress nofree nosync nounwind willreturn
declare void @llvm.lifetime.start.p0i8(i64 immarg, i8* nocapture) #1

; Function Attrs: nofree nounwind
declare noundef i32 @__isoc99_scanf(i8* nocapture noundef readonly, ...) local_unnamed_addr #2

; Function Attrs: argmemonly mustprogress nofree nounwind readonly willreturn
declare i64 @strlen(i8* nocapture) local_unnamed_addr #3

; Function Attrs: nofree nounwind
declare noundef i32 @printf(i8* nocapture noundef readonly, ...) local_unnamed_addr #2

; Function Attrs: argmemonly mustprogress nofree nosync nounwind willreturn
declare void @llvm.lifetime.end.p0i8(i64 immarg, i8* nocapture) #1

; Function Attrs: nofree nounwind
declare noundef i32 @puts(i8* nocapture noundef readonly) local_unnamed_addr #4


!llvm.module.flags = !{!0, !1, !2, !3}
!llvm.ident = !{!4}

!0 = !{i32 1, !"wchar_size", i32 4}
!1 = !{i32 7, !"PIC Level", i32 2}
!2 = !{i32 7, !"PIE Level", i32 2}
!3 = !{i32 7, !"uwtable", i32 1}
!4 = !{!"clang version 13.0.0"}
!5 = !{!6, !6, i64 0}
!6 = !{!"int", !7, i64 0}
!7 = !{!"omnipotent char", !8, i64 0}
!8 = !{!"Simple C/C++ TBAA"}
!9 = !{!7, !7, i64 0}
!10 = distinct !{!10, !11}
!11 = !{!"llvm.loop.mustprogress"}
!12 = distinct !{!12, !11}
